target datalayout = "e-m:e-p270:32:32-p271:32:32-p272:64:64-i64:64-i128:128-f80:128-n8:16:32:64-S128"
target triple = "x86_64-unknown-linux-gnu"

%struct.rcu_head = type { ptr, ptr }
%struct.AddressSpaceDispatch = type { ptr, %struct.PhysPageEntry, %struct.PhysPageMap }
%struct.PhysPageEntry = type { i32 }
%struct.PhysPageMap = type { %struct.rcu_head, i32, i32, i32, i32, ptr, ptr }

; Function Attrs: nounwind sspstrong uwtable
define dso_local void @address_space_dispatch_compact(ptr noundef %d) #0 {
entry:
  %d.addr = alloca ptr, align 8
  store ptr %d, ptr %d.addr, align 8
  %0 = load ptr, ptr %d.addr, align 8
  %phys_map = getelementptr inbounds %struct.AddressSpaceDispatch, ptr %0, i32 0, i32 1
  %bf.load = load i32, ptr %phys_map, align 8
  %bf.clear = and i32 %bf.load, 63
  %tobool = icmp ne i32 %bf.clear, 0
  br i1 %tobool, label %if.then, label %if.end

if.then:                                          ; preds = %entry
  %1 = load ptr, ptr %d.addr, align 8
  %phys_map1 = getelementptr inbounds %struct.AddressSpaceDispatch, ptr %1, i32 0, i32 1
  %2 = load ptr, ptr %d.addr, align 8
  %map = getelementptr inbounds %struct.AddressSpaceDispatch, ptr %2, i32 0, i32 2
  %nodes = getelementptr inbounds %struct.PhysPageMap, ptr %map, i32 0, i32 5
  %3 = load ptr, ptr %nodes, align 8
  call void @phys_page_compact(ptr noundef %phys_map1, ptr noundef %3)
  br label %if.end

if.end:                                           ; preds = %if.then, %entry
  ret void
}