; Function Attrs: nounwind sspstrong uwtable
define dso_local void @address_space_dispatch_compact(ptr noundef captures(none) %d) local_unnamed_addr #0 {
entry:
  %phys_map = getelementptr inbounds nuw i8, ptr %d, i64 8
  %bf.load = load i32, ptr %phys_map, align 8
  %bf.clear = and i32 %bf.load, 63
  %tobool.not = icmp eq i32 %bf.clear, 0
  br i1 %tobool.not, label %if.end, label %if.then

if.then:                                          ; preds = %entry
  %nodes = getelementptr inbounds nuw i8, ptr %d, i64 48
  %0 = load ptr, ptr %nodes, align 8
  tail call fastcc void @phys_page_compact(ptr noundef nonnull %phys_map, ptr noundef %0)
  br label %if.end

if.end:                                           ; preds = %if.then, %entry
  ret void
}